; Function Attrs: nounwind uwtable
define dso_local noundef ptr @hashfd(i32 noundef %0, ptr noundef %1) local_unnamed_addr #0 {
  %3 = tail call ptr @xmalloc(i64 noundef 2488) #13
  store i32 %0, ptr %3, align 8, !tbaa !23
  %4 = getelementptr inbounds nuw i8, ptr %3, i64 4
  store i32 -1, ptr %4, align 4, !tbaa !20
  %5 = getelementptr inbounds nuw i8, ptr %3, i64 8
  store i32 0, ptr %5, align 8, !tbaa !4
  %6 = getelementptr inbounds nuw i8, ptr %3, i64 2416
  %7 = getelementptr inbounds nuw i8, ptr %3, i64 2432
  tail call void @llvm.memset.p0.i64(ptr noundef nonnull align 8 dereferenceable(16) %6, i8 0, i64 16, i1 false)
  store ptr %1, ptr %7, align 8, !tbaa !22
  %8 = getelementptr inbounds nuw i8, ptr %3, i64 2440
  store i32 0, ptr %8, align 8, !tbaa !30
  %9 = getelementptr inbounds nuw i8, ptr %3, i64 2480
  store i32 0, ptr %9, align 8, !tbaa !14
  %10 = load ptr, ptr @the_repository, align 8, !tbaa !34
  %11 = getelementptr inbounds nuw i8, ptr %10, i64 400
  %12 = load ptr, ptr %11, align 8, !tbaa !36
  %13 = tail call ptr @unsafe_hash_algo(ptr noundef %12) #13
  %14 = getelementptr inbounds nuw i8, ptr %3, i64 2472
  store ptr %13, ptr %14, align 8, !tbaa !15
  %15 = getelementptr inbounds nuw i8, ptr %13, i64 40
  %16 = load ptr, ptr %15, align 8, !tbaa !53
  %17 = getelementptr inbounds nuw i8, ptr %3, i64 16
  tail call void %16(ptr noundef nonnull %17) #13
  %18 = getelementptr inbounds nuw i8, ptr %3, i64 2448
  store i64 131072, ptr %18, align 8, !tbaa !29
  %19 = tail call ptr @xmalloc(i64 noundef 131072) #13
  %20 = getelementptr inbounds nuw i8, ptr %3, i64 2456
  store ptr %19, ptr %20, align 8, !tbaa !19
  %21 = getelementptr inbounds nuw i8, ptr %3, i64 2464
  store ptr null, ptr %21, align 8, !tbaa !21
  ret ptr %3
}